target datalayout = "e-m:e-p270:32:32-p271:32:32-p272:64:64-i64:64-i128:128-f80:128-n8:16:32:64-S128"
target triple = "x86_64-pc-linux-gnu"

%struct.zskiplist = type { ptr, ptr, i64, i32 }
%struct.redisObject = type { i32, i32, ptr }
%struct.zset = type { ptr, ptr }
%struct.zsetopsrc = type { ptr, i32, i32, double, %union.anon }
%union.anon = type { %union._iterset }
%union._iterset = type { %struct.anon.1 }
%struct.anon.1 = type { ptr, ptr, ptr }

@.str.1 = private unnamed_addr constant [9 x i8] c"t_zset.c\00", align 1
@.str.9 = private unnamed_addr constant [28 x i8] c"Unknown sorted set encoding\00", align 1
@.str.39 = private unnamed_addr constant [17 x i8] c"Unsupported type\00", align 1

; Function Attrs: nounwind uwtable
define dso_local i32 @zzlLength(ptr noundef %0) #0 {
  %2 = alloca ptr, align 8
  store ptr %0, ptr %2, align 8, !tbaa !11
  %3 = load ptr, ptr %2, align 8, !tbaa !11
  %4 = call i64 @lpLength(ptr noundef %3)
  %5 = udiv i64 %4, 2
  %6 = trunc i64 %5 to i32
  ret i32 %6
}

; Function Attrs: nounwind uwtable
define dso_local i64 @zuiLength(ptr noundef %0) #0 {
  %2 = alloca i64, align 8
  %3 = alloca ptr, align 8
  %4 = alloca ptr, align 8
  store ptr %0, ptr %3, align 8, !tbaa !45
  %5 = load ptr, ptr %3, align 8, !tbaa !45
  %6 = getelementptr inbounds nuw %struct.zsetopsrc, ptr %5, i32 0, i32 0
  %7 = load ptr, ptr %6, align 8, !tbaa !171
  %8 = icmp eq ptr %7, null
  br i1 %8, label %9, label %10

9:                                                ; preds = %1
  store i64 0, ptr %2, align 8
  br label %56

10:                                               ; preds = %1
  %11 = load ptr, ptr %3, align 8, !tbaa !45
  %12 = getelementptr inbounds nuw %struct.zsetopsrc, ptr %11, i32 0, i32 1
  %13 = load i32, ptr %12, align 8, !tbaa !173
  %14 = icmp eq i32 %13, 2
  br i1 %14, label %15, label %20

15:                                               ; preds = %10
  %16 = load ptr, ptr %3, align 8, !tbaa !45
  %17 = getelementptr inbounds nuw %struct.zsetopsrc, ptr %16, i32 0, i32 0
  %18 = load ptr, ptr %17, align 8, !tbaa !171
  %19 = call i64 @setTypeSize(ptr noundef %18)
  store i64 %19, ptr %2, align 8
  br label %56

20:                                               ; preds = %10
  %21 = load ptr, ptr %3, align 8, !tbaa !45
  %22 = getelementptr inbounds nuw %struct.zsetopsrc, ptr %21, i32 0, i32 1
  %23 = load i32, ptr %22, align 8, !tbaa !173
  %24 = icmp eq i32 %23, 3
  br i1 %24, label %25, label %55

25:                                               ; preds = %20
  %26 = load ptr, ptr %3, align 8, !tbaa !45
  %27 = getelementptr inbounds nuw %struct.zsetopsrc, ptr %26, i32 0, i32 2
  %28 = load i32, ptr %27, align 4, !tbaa !176
  %29 = icmp eq i32 %28, 11
  br i1 %29, label %30, label %38

30:                                               ; preds = %25
  %31 = load ptr, ptr %3, align 8, !tbaa !45
  %32 = getelementptr inbounds nuw %struct.zsetopsrc, ptr %31, i32 0, i32 0
  %33 = load ptr, ptr %32, align 8, !tbaa !171
  %34 = getelementptr inbounds nuw %struct.redisObject, ptr %33, i32 0, i32 2
  %35 = load ptr, ptr %34, align 8, !tbaa !84
  %36 = call i32 @zzlLength(ptr noundef %35)
  %37 = zext i32 %36 to i64
  store i64 %37, ptr %2, align 8
  br label %56

38:                                               ; preds = %25
  %39 = load ptr, ptr %3, align 8, !tbaa !45
  %40 = getelementptr inbounds nuw %struct.zsetopsrc, ptr %39, i32 0, i32 2
  %41 = load i32, ptr %40, align 4, !tbaa !176
  %42 = icmp eq i32 %41, 7
  br i1 %42, label %43, label %54

43:                                               ; preds = %38
  call void @llvm.lifetime.start.p0(i64 8, ptr %4) #12
  %44 = load ptr, ptr %3, align 8, !tbaa !45
  %45 = getelementptr inbounds nuw %struct.zsetopsrc, ptr %44, i32 0, i32 0
  %46 = load ptr, ptr %45, align 8, !tbaa !171
  %47 = getelementptr inbounds nuw %struct.redisObject, ptr %46, i32 0, i32 2
  %48 = load ptr, ptr %47, align 8, !tbaa !84
  store ptr %48, ptr %4, align 8, !tbaa !137
  %49 = load ptr, ptr %4, align 8, !tbaa !137
  %50 = getelementptr inbounds nuw %struct.zset, ptr %49, i32 0, i32 1
  %51 = load ptr, ptr %50, align 8, !tbaa !112
  %52 = getelementptr inbounds nuw %struct.zskiplist, ptr %51, i32 0, i32 2
  %53 = load i64, ptr %52, align 8, !tbaa !21
  store i64 %53, ptr %2, align 8
  call void @llvm.lifetime.end.p0(i64 8, ptr %4) #12
  br label %56

54:                                               ; preds = %38
  call void (ptr, i32, ptr, ...) @_serverPanic(ptr noundef @.str.1, i32 noundef 2215, ptr noundef @.str.9)
  call void @abort() #14
  unreachable

55:                                               ; preds = %20
  call void (ptr, i32, ptr, ...) @_serverPanic(ptr noundef @.str.1, i32 noundef 2218, ptr noundef @.str.39)
  call void @abort() #14
  unreachable

56:                                               ; preds = %43, %30, %15, %9
  %57 = load i64, ptr %2, align 8
  ret i64 %57
}