; Function Attrs: nounwind uwtable
define dso_local i64 @zuiLength(ptr noundef readonly captures(none) %0) local_unnamed_addr #0 {
  %2 = load ptr, ptr %0, align 8, !tbaa !157
  %3 = icmp eq ptr %2, null
  br i1 %3, label %27, label %4

4:                                                ; preds = %1
  %5 = getelementptr inbounds nuw i8, ptr %0, i64 8
  %6 = load i32, ptr %5, align 8, !tbaa !159
  switch i32 %6, label %26 [
    i32 2, label %7
    i32 3, label %9
  ]

7:                                                ; preds = %4
  %8 = tail call i64 @setTypeSize(ptr noundef nonnull %2) #18
  br label %27

9:                                                ; preds = %4
  %10 = getelementptr inbounds nuw i8, ptr %0, i64 12
  %11 = load i32, ptr %10, align 4, !tbaa !160
  switch i32 %11, label %25 [
    i32 11, label %12
    i32 7, label %18
  ]

12:                                               ; preds = %9
  %13 = getelementptr inbounds nuw i8, ptr %2, i64 8
  %14 = load ptr, ptr %13, align 8, !tbaa !75
  %15 = tail call i64 @lpLength(ptr noundef %14) #18
  %16 = lshr i64 %15, 1
  %17 = and i64 %16, 4294967295
  br label %27

18:                                               ; preds = %9
  %19 = getelementptr inbounds nuw i8, ptr %2, i64 8
  %20 = load ptr, ptr %19, align 8, !tbaa !75
  %21 = getelementptr inbounds nuw i8, ptr %20, i64 8
  %22 = load ptr, ptr %21, align 8, !tbaa !97
  %23 = getelementptr inbounds nuw i8, ptr %22, i64 16
  %24 = load i64, ptr %23, align 8, !tbaa !17
  br label %27

25:                                               ; preds = %9
  tail call void (ptr, i32, ptr, ...) @_serverPanic(ptr noundef nonnull @.str.1, i32 noundef 2215, ptr noundef nonnull @.str.9) #18
  tail call void @abort() #19
  unreachable

26:                                               ; preds = %4
  tail call void (ptr, i32, ptr, ...) @_serverPanic(ptr noundef nonnull @.str.1, i32 noundef 2218, ptr noundef nonnull @.str.39) #18
  tail call void @abort() #19
  unreachable

27:                                               ; preds = %1, %18, %12, %7
  %.0 = phi i64 [ %8, %7 ], [ %17, %12 ], [ %24, %18 ], [ 0, %1 ]
  ret i64 %.0
}